target datalayout = "e-m:e-p270:32:32-p271:32:32-p272:64:64-i64:64-i128:128-f80:128-n8:16:32:64-S128"
target triple = "x86_64-pc-linux-gnu"

%"class.llvm::codeview::TypeIndex" = type { %"struct.llvm::support::detail::packed_endian_specific_integral" }
%"struct.llvm::support::detail::packed_endian_specific_integral" = type { %struct.anon }
%struct.anon = type { [4 x i8] }
%"class.llvm::codeview::TypeRecord" = type { i16 }
%"class.llvm::pdb::NativeTypeFunctionSig" = type <{ %"class.llvm::pdb::NativeRawSymbol", %union.anon, i32, %"class.llvm::codeview::TypeIndex", [4 x i8], %"class.llvm::codeview::ArgListRecord", i8, [7 x i8] }>
%"class.llvm::pdb::NativeRawSymbol" = type { %"class.llvm::pdb::IPDBRawSymbol", ptr, i32, i32 }
%"class.llvm::pdb::IPDBRawSymbol" = type { ptr }
%union.anon = type { %"class.llvm::codeview::MemberFunctionRecord" }
%"class.llvm::codeview::MemberFunctionRecord" = type { %"class.llvm::codeview::TypeRecord", %"class.llvm::codeview::TypeIndex", %"class.llvm::codeview::TypeIndex", %"class.llvm::codeview::TypeIndex", i8, i8, i16, %"class.llvm::codeview::TypeIndex", i32 }
%"class.llvm::codeview::ArgListRecord" = type { %"class.llvm::codeview::TypeRecord", %"class.std::vector" }
%"class.std::vector" = type { %"struct.std::_Vector_base" }
%"struct.std::_Vector_base" = type { %"struct.std::_Vector_base<llvm::codeview::TypeIndex, std::allocator<llvm::codeview::TypeIndex>>::_Vector_impl" }
%"struct.std::_Vector_base<llvm::codeview::TypeIndex, std::allocator<llvm::codeview::TypeIndex>>::_Vector_impl" = type { %"struct.std::_Vector_base<llvm::codeview::TypeIndex, std::allocator<llvm::codeview::TypeIndex>>::_Vector_impl_data" }
%"struct.std::_Vector_base<llvm::codeview::TypeIndex, std::allocator<llvm::codeview::TypeIndex>>::_Vector_impl_data" = type { ptr, ptr, ptr }
%"class.llvm::StringRef" = type { ptr, i64 }

@.str = private unnamed_addr constant [16 x i8] c"lexicalParentId\00", align 1
@.str.1 = private unnamed_addr constant [18 x i8] c"callingConvention\00", align 1
@.str.2 = private unnamed_addr constant [6 x i8] c"count\00", align 1
@.str.3 = private unnamed_addr constant [7 x i8] c"typeId\00", align 1
@.str.4 = private unnamed_addr constant [11 x i8] c"thisAdjust\00", align 1
@.str.5 = private unnamed_addr constant [12 x i8] c"constructor\00", align 1
@.str.6 = private unnamed_addr constant [10 x i8] c"constType\00", align 1
@.str.7 = private unnamed_addr constant [25 x i8] c"isConstructorVirtualBase\00", align 1
@.str.8 = private unnamed_addr constant [15 x i8] c"isCxxReturnUdt\00", align 1
@.str.9 = private unnamed_addr constant [14 x i8] c"unalignedType\00", align 1
@.str.10 = private unnamed_addr constant [13 x i8] c"volatileType\00", align 1

; Function Attrs: mustprogress nounwind uwtable
define linkonce_odr hidden noundef i64 @_ZNSt11char_traitsIcE6lengthEPKc(ptr noundef %0) #0 comdat align 2 {
  %2 = alloca ptr, align 8
  store ptr %0, ptr %2, align 8
  %3 = load ptr, ptr %2, align 8
  %4 = call i64 @strlen(ptr noundef %3) #10
  ret i64 %4
}

; Function Attrs: mustprogress nounwind uwtable
define linkonce_odr hidden void @_ZN4llvm9StringRefC2EPKc(ptr noundef nonnull align 8 dereferenceable(16) %0, ptr noundef %1) unnamed_addr #0 comdat align 2 {
  %3 = alloca ptr, align 8
  %4 = alloca ptr, align 8
  store ptr %0, ptr %3, align 8
  store ptr %1, ptr %4, align 8
  %5 = load ptr, ptr %3, align 8
  %6 = getelementptr inbounds nuw %"class.llvm::StringRef", ptr %5, i32 0, i32 0
  %7 = load ptr, ptr %4, align 8
  store ptr %7, ptr %6, align 8
  %8 = getelementptr inbounds nuw %"class.llvm::StringRef", ptr %5, i32 0, i32 1
  %9 = load ptr, ptr %4, align 8
  %10 = icmp ne ptr %9, null
  br i1 %10, label %11, label %14

11:                                               ; preds = %2
  %12 = load ptr, ptr %4, align 8
  %13 = call noundef i64 @_ZNSt11char_traitsIcE6lengthEPKc(ptr noundef %12)
  br label %15

14:                                               ; preds = %2
  br label %15

15:                                               ; preds = %14, %11
  %16 = phi i64 [ %13, %11 ], [ 0, %14 ]
  store i64 %16, ptr %8, align 8
  ret void
}

; Function Attrs: mustprogress nounwind uwtable
define dso_local void @_ZNK4llvm3pdb21NativeTypeFunctionSig4dumpERNS_11raw_ostreamEiNS0_16PdbSymbolIdFieldES4_(ptr noundef nonnull align 8 dereferenceable(97) %0, ptr noundef nonnull align 8 dereferenceable(48) %1, i32 noundef %2, i32 noundef %3, i32 noundef %4) unnamed_addr #0 align 2 {
  %6 = alloca ptr, align 8
  %7 = alloca ptr, align 8
  %8 = alloca i32, align 4
  %9 = alloca i32, align 4
  %10 = alloca i32, align 4
  %11 = alloca %"class.llvm::StringRef", align 8
  %12 = alloca %"class.llvm::StringRef", align 8
  %13 = alloca %"class.llvm::StringRef", align 8
  %14 = alloca %"class.llvm::StringRef", align 8
  %15 = alloca %"class.llvm::StringRef", align 8
  %16 = alloca %"class.llvm::StringRef", align 8
  %17 = alloca %"class.llvm::StringRef", align 8
  %18 = alloca %"class.llvm::StringRef", align 8
  %19 = alloca %"class.llvm::StringRef", align 8
  %20 = alloca %"class.llvm::StringRef", align 8
  %21 = alloca %"class.llvm::StringRef", align 8
  store ptr %0, ptr %6, align 8
  store ptr %1, ptr %7, align 8
  store i32 %2, ptr %8, align 4
  store i32 %3, ptr %9, align 4
  store i32 %4, ptr %10, align 4
  %22 = load ptr, ptr %6, align 8
  %23 = load ptr, ptr %7, align 8
  %24 = load i32, ptr %8, align 4
  %25 = load i32, ptr %9, align 4
  %26 = load i32, ptr %10, align 4
  call void @_ZNK4llvm3pdb15NativeRawSymbol4dumpERNS_11raw_ostreamEiNS0_16PdbSymbolIdFieldES4_(ptr noundef nonnull align 8 dereferenceable(24) %22, ptr noundef nonnull align 8 dereferenceable(48) %23, i32 noundef %24, i32 noundef %25, i32 noundef %26)
  %27 = load ptr, ptr %7, align 8
  call void @_ZN4llvm9StringRefC2EPKc(ptr noundef nonnull align 8 dereferenceable(16) %11, ptr noundef @.str)
  %28 = load i32, ptr %8, align 4
  %29 = getelementptr inbounds nuw %"class.llvm::pdb::NativeRawSymbol", ptr %22, i32 0, i32 1
  %30 = load ptr, ptr %29, align 8
  %31 = load i32, ptr %9, align 4
  %32 = load i32, ptr %10, align 4
  %33 = getelementptr inbounds nuw { ptr, i64 }, ptr %11, i32 0, i32 0
  %34 = load ptr, ptr %33, align 8
  %35 = getelementptr inbounds nuw { ptr, i64 }, ptr %11, i32 0, i32 1
  %36 = load i64, ptr %35, align 8
  call void @_ZN4llvm3pdb17dumpSymbolIdFieldERNS_11raw_ostreamENS_9StringRefEjiRKNS0_11IPDBSessionENS0_16PdbSymbolIdFieldES7_S7_(ptr noundef nonnull align 8 dereferenceable(48) %27, ptr %34, i64 %36, i32 noundef 0, i32 noundef %28, ptr noundef nonnull align 8 dereferenceable(8) %30, i32 noundef 2, i32 noundef %31, i32 noundef %32)
  %37 = load ptr, ptr %7, align 8
  call void @_ZN4llvm9StringRefC2EPKc(ptr noundef nonnull align 8 dereferenceable(16) %12, ptr noundef @.str.1)
  %38 = load ptr, ptr %22, align 8
  %39 = getelementptr inbounds ptr, ptr %38, i64 27
  %40 = load ptr, ptr %39, align 8
  %41 = call noundef zeroext i8 %40(ptr noundef nonnull align 8 dereferenceable(97) %22)
  %42 = load i32, ptr %8, align 4
  %43 = getelementptr inbounds nuw { ptr, i64 }, ptr %12, i32 0, i32 0
  %44 = load ptr, ptr %43, align 8
  %45 = getelementptr inbounds nuw { ptr, i64 }, ptr %12, i32 0, i32 1
  %46 = load i64, ptr %45, align 8
  call void @_ZN4llvm3pdb15dumpSymbolFieldINS_8codeview17CallingConventionEEEvRNS_11raw_ostreamENS_9StringRefET_i(ptr noundef nonnull align 8 dereferenceable(48) %37, ptr %44, i64 %46, i8 noundef zeroext %41, i32 noundef %42)
  %47 = load ptr, ptr %7, align 8
  call void @_ZN4llvm9StringRefC2EPKc(ptr noundef nonnull align 8 dereferenceable(16) %13, ptr noundef @.str.2)
  %48 = load ptr, ptr %22, align 8
  %49 = getelementptr inbounds ptr, ptr %48, i64 30
  %50 = load ptr, ptr %49, align 8
  %51 = call noundef i32 %50(ptr noundef nonnull align 8 dereferenceable(97) %22)
  %52 = load i32, ptr %8, align 4
  %53 = getelementptr inbounds nuw { ptr, i64 }, ptr %13, i32 0, i32 0
  %54 = load ptr, ptr %53, align 8
  %55 = getelementptr inbounds nuw { ptr, i64 }, ptr %13, i32 0, i32 1
  %56 = load i64, ptr %55, align 8
  call void @_ZN4llvm3pdb15dumpSymbolFieldIjEEvRNS_11raw_ostreamENS_9StringRefET_i(ptr noundef nonnull align 8 dereferenceable(48) %47, ptr %54, i64 %56, i32 noundef %51, i32 noundef %52)
  %57 = load ptr, ptr %7, align 8
  call void @_ZN4llvm9StringRefC2EPKc(ptr noundef nonnull align 8 dereferenceable(16) %14, ptr noundef @.str.3)
  %58 = load ptr, ptr %22, align 8
  %59 = getelementptr inbounds ptr, ptr %58, i64 74
  %60 = load ptr, ptr %59, align 8
  %61 = call noundef i32 %60(ptr noundef nonnull align 8 dereferenceable(97) %22)
  %62 = load i32, ptr %8, align 4
  %63 = getelementptr inbounds nuw %"class.llvm::pdb::NativeRawSymbol", ptr %22, i32 0, i32 1
  %64 = load ptr, ptr %63, align 8
  %65 = load i32, ptr %9, align 4
  %66 = load i32, ptr %10, align 4
  %67 = getelementptr inbounds nuw { ptr, i64 }, ptr %14, i32 0, i32 0
  %68 = load ptr, ptr %67, align 8
  %69 = getelementptr inbounds nuw { ptr, i64 }, ptr %14, i32 0, i32 1
  %70 = load i64, ptr %69, align 8
  call void @_ZN4llvm3pdb17dumpSymbolIdFieldERNS_11raw_ostreamENS_9StringRefEjiRKNS0_11IPDBSessionENS0_16PdbSymbolIdFieldES7_S7_(ptr noundef nonnull align 8 dereferenceable(48) %57, ptr %68, i64 %70, i32 noundef %61, i32 noundef %62, ptr noundef nonnull align 8 dereferenceable(8) %64, i32 noundef 8, i32 noundef %65, i32 noundef %66)
  %71 = getelementptr inbounds nuw %"class.llvm::pdb::NativeTypeFunctionSig", ptr %22, i32 0, i32 6
  %72 = load i8, ptr %71, align 8
  %73 = trunc i8 %72 to i1
  br i1 %73, label %74, label %85

74:                                               ; preds = %5
  %75 = load ptr, ptr %7, align 8
  call void @_ZN4llvm9StringRefC2EPKc(ptr noundef nonnull align 8 dereferenceable(16) %15, ptr noundef @.str.4)
  %76 = load ptr, ptr %22, align 8
  %77 = getelementptr inbounds ptr, ptr %76, i64 89
  %78 = load ptr, ptr %77, align 8
  %79 = call noundef i32 %78(ptr noundef nonnull align 8 dereferenceable(97) %22)
  %80 = load i32, ptr %8, align 4
  %81 = getelementptr inbounds nuw { ptr, i64 }, ptr %15, i32 0, i32 0
  %82 = load ptr, ptr %81, align 8
  %83 = getelementptr inbounds nuw { ptr, i64 }, ptr %15, i32 0, i32 1
  %84 = load i64, ptr %83, align 8
  call void @_ZN4llvm3pdb15dumpSymbolFieldIiEEvRNS_11raw_ostreamENS_9StringRefET_i(ptr noundef nonnull align 8 dereferenceable(48) %75, ptr %82, i64 %84, i32 noundef %79, i32 noundef %80)
  br label %85

85:                                               ; preds = %74, %5
  %86 = load ptr, ptr %7, align 8
  call void @_ZN4llvm9StringRefC2EPKc(ptr noundef nonnull align 8 dereferenceable(16) %16, ptr noundef @.str.5)
  %87 = load ptr, ptr %22, align 8
  %88 = getelementptr inbounds ptr, ptr %87, i64 98
  %89 = load ptr, ptr %88, align 8
  %90 = call noundef zeroext i1 %89(ptr noundef nonnull align 8 dereferenceable(97) %22)
  %91 = load i32, ptr %8, align 4
  %92 = getelementptr inbounds nuw { ptr, i64 }, ptr %16, i32 0, i32 0
  %93 = load ptr, ptr %92, align 8
  %94 = getelementptr inbounds nuw { ptr, i64 }, ptr %16, i32 0, i32 1
  %95 = load i64, ptr %94, align 8
  call void @_ZN4llvm3pdb15dumpSymbolFieldIbEEvRNS_11raw_ostreamENS_9StringRefET_i(ptr noundef nonnull align 8 dereferenceable(48) %86, ptr %93, i64 %95, i1 noundef zeroext %90, i32 noundef %91)
  %96 = load ptr, ptr %7, align 8
  call void @_ZN4llvm9StringRefC2EPKc(ptr noundef nonnull align 8 dereferenceable(16) %17, ptr noundef @.str.6)
  %97 = load ptr, ptr %22, align 8
  %98 = getelementptr inbounds ptr, ptr %97, i64 103
  %99 = load ptr, ptr %98, align 8
  %100 = call noundef zeroext i1 %99(ptr noundef nonnull align 8 dereferenceable(97) %22)
  %101 = load i32, ptr %8, align 4
  %102 = getelementptr inbounds nuw { ptr, i64 }, ptr %17, i32 0, i32 0
  %103 = load ptr, ptr %102, align 8
  %104 = getelementptr inbounds nuw { ptr, i64 }, ptr %17, i32 0, i32 1
  %105 = load i64, ptr %104, align 8
  call void @_ZN4llvm3pdb15dumpSymbolFieldIbEEvRNS_11raw_ostreamENS_9StringRefET_i(ptr noundef nonnull align 8 dereferenceable(48) %96, ptr %103, i64 %105, i1 noundef zeroext %100, i32 noundef %101)
  %106 = load ptr, ptr %7, align 8
  call void @_ZN4llvm9StringRefC2EPKc(ptr noundef nonnull align 8 dereferenceable(16) %18, ptr noundef @.str.7)
  %107 = load ptr, ptr %22, align 8
  %108 = getelementptr inbounds ptr, ptr %107, i64 136
  %109 = load ptr, ptr %108, align 8
  %110 = call noundef zeroext i1 %109(ptr noundef nonnull align 8 dereferenceable(97) %22)
  %111 = load i32, ptr %8, align 4
  %112 = getelementptr inbounds nuw { ptr, i64 }, ptr %18, i32 0, i32 0
  %113 = load ptr, ptr %112, align 8
  %114 = getelementptr inbounds nuw { ptr, i64 }, ptr %18, i32 0, i32 1
  %115 = load i64, ptr %114, align 8
  call void @_ZN4llvm3pdb15dumpSymbolFieldIbEEvRNS_11raw_ostreamENS_9StringRefET_i(ptr noundef nonnull align 8 dereferenceable(48) %106, ptr %113, i64 %115, i1 noundef zeroext %110, i32 noundef %111)
  %116 = load ptr, ptr %7, align 8
  call void @_ZN4llvm9StringRefC2EPKc(ptr noundef nonnull align 8 dereferenceable(16) %19, ptr noundef @.str.8)
  %117 = load ptr, ptr %22, align 8
  %118 = getelementptr inbounds ptr, ptr %117, i64 137
  %119 = load ptr, ptr %118, align 8
  %120 = call noundef zeroext i1 %119(ptr noundef nonnull align 8 dereferenceable(97) %22)
  %121 = load i32, ptr %8, align 4
  %122 = getelementptr inbounds nuw { ptr, i64 }, ptr %19, i32 0, i32 0
  %123 = load ptr, ptr %122, align 8
  %124 = getelementptr inbounds nuw { ptr, i64 }, ptr %19, i32 0, i32 1
  %125 = load i64, ptr %124, align 8
  call void @_ZN4llvm3pdb15dumpSymbolFieldIbEEvRNS_11raw_ostreamENS_9StringRefET_i(ptr noundef nonnull align 8 dereferenceable(48) %116, ptr %123, i64 %125, i1 noundef zeroext %120, i32 noundef %121)
  %126 = load ptr, ptr %7, align 8
  call void @_ZN4llvm9StringRefC2EPKc(ptr noundef nonnull align 8 dereferenceable(16) %20, ptr noundef @.str.9)
  %127 = load ptr, ptr %22, align 8
  %128 = getelementptr inbounds ptr, ptr %127, i64 171
  %129 = load ptr, ptr %128, align 8
  %130 = call noundef zeroext i1 %129(ptr noundef nonnull align 8 dereferenceable(97) %22)
  %131 = load i32, ptr %8, align 4
  %132 = getelementptr inbounds nuw { ptr, i64 }, ptr %20, i32 0, i32 0
  %133 = load ptr, ptr %132, align 8
  %134 = getelementptr inbounds nuw { ptr, i64 }, ptr %20, i32 0, i32 1
  %135 = load i64, ptr %134, align 8
  call void @_ZN4llvm3pdb15dumpSymbolFieldIbEEvRNS_11raw_ostreamENS_9StringRefET_i(ptr noundef nonnull align 8 dereferenceable(48) %126, ptr %133, i64 %135, i1 noundef zeroext %130, i32 noundef %131)
  %136 = load ptr, ptr %7, align 8
  call void @_ZN4llvm9StringRefC2EPKc(ptr noundef nonnull align 8 dereferenceable(16) %21, ptr noundef @.str.10)
  %137 = load ptr, ptr %22, align 8
  %138 = getelementptr inbounds ptr, ptr %137, i64 177
  %139 = load ptr, ptr %138, align 8
  %140 = call noundef zeroext i1 %139(ptr noundef nonnull align 8 dereferenceable(97) %22)
  %141 = load i32, ptr %8, align 4
  %142 = getelementptr inbounds nuw { ptr, i64 }, ptr %21, i32 0, i32 0
  %143 = load ptr, ptr %142, align 8
  %144 = getelementptr inbounds nuw { ptr, i64 }, ptr %21, i32 0, i32 1
  %145 = load i64, ptr %144, align 8
  call void @_ZN4llvm3pdb15dumpSymbolFieldIbEEvRNS_11raw_ostreamENS_9StringRefET_i(ptr noundef nonnull align 8 dereferenceable(48) %136, ptr %143, i64 %145, i1 noundef zeroext %140, i32 noundef %141)
  ret void
}